
_GetIncomingText:

;utils.c,11 :: 		void GetIncomingText(){
;utils.c,13 :: 		int column = 1, line = 1;
	MOVLW      1
	MOVWF      GetIncomingText_column_L0+0
	MOVLW      0
	MOVWF      GetIncomingText_column_L0+1
	MOVLW      1
	MOVWF      GetIncomingText_line_L0+0
	MOVLW      0
	MOVWF      GetIncomingText_line_L0+1
;utils.c,15 :: 		if(UART1_Data_Ready()) control = UART1_Read(); // Read the next byte
	CALL       _UART1_Data_Ready+0
	MOVF       R0+0, 0
	BTFSC      STATUS+0, 2
	GOTO       L_GetIncomingText0
	CALL       _UART1_Read+0
	MOVF       R0+0, 0
	MOVWF      GetIncomingText_control_L0+0
L_GetIncomingText0:
;utils.c,17 :: 		if(control == 0x02){
	MOVF       GetIncomingText_control_L0+0, 0
	XORLW      2
	BTFSS      STATUS+0, 2
	GOTO       L_GetIncomingText1
;utils.c,18 :: 		Lcd_Cmd(_LCD_CLEAR);               // Cleans the Lcd
	MOVLW      1
	MOVWF      FARG_Lcd_Cmd_out_char+0
	CALL       _Lcd_Cmd+0
;utils.c,19 :: 		while(1){
L_GetIncomingText2:
;utils.c,20 :: 		control = UART1_Read();
	CALL       _UART1_Read+0
	MOVF       R0+0, 0
	MOVWF      GetIncomingText_control_L0+0
;utils.c,21 :: 		if(control == 0x03) break;
	MOVF       R0+0, 0
	XORLW      3
	BTFSS      STATUS+0, 2
	GOTO       L_GetIncomingText4
	GOTO       L_GetIncomingText3
L_GetIncomingText4:
;utils.c,22 :: 		if(control == '\n'){
	MOVF       GetIncomingText_control_L0+0, 0
	XORLW      10
	BTFSS      STATUS+0, 2
	GOTO       L_GetIncomingText5
;utils.c,23 :: 		line++;
	INCF       GetIncomingText_line_L0+0, 1
	BTFSC      STATUS+0, 2
	INCF       GetIncomingText_line_L0+1, 1
;utils.c,24 :: 		column = 1;
	MOVLW      1
	MOVWF      GetIncomingText_column_L0+0
	MOVLW      0
	MOVWF      GetIncomingText_column_L0+1
;utils.c,25 :: 		continue;
	GOTO       L_GetIncomingText2
;utils.c,26 :: 		}
L_GetIncomingText5:
;utils.c,27 :: 		Lcd_Out(line, column, control);
	MOVF       GetIncomingText_line_L0+0, 0
	MOVWF      FARG_Lcd_Out_row+0
	MOVF       GetIncomingText_column_L0+0, 0
	MOVWF      FARG_Lcd_Out_column+0
	MOVF       GetIncomingText_control_L0+0, 0
	MOVWF      FARG_Lcd_Out_text+0
	CALL       _Lcd_Out+0
;utils.c,28 :: 		column++;
	INCF       GetIncomingText_column_L0+0, 1
	BTFSC      STATUS+0, 2
	INCF       GetIncomingText_column_L0+1, 1
;utils.c,29 :: 		if(column > 16){
	MOVLW      128
	MOVWF      R0+0
	MOVLW      128
	XORWF      GetIncomingText_column_L0+1, 0
	SUBWF      R0+0, 0
	BTFSS      STATUS+0, 2
	GOTO       L__GetIncomingText70
	MOVF       GetIncomingText_column_L0+0, 0
	SUBLW      16
L__GetIncomingText70:
	BTFSC      STATUS+0, 0
	GOTO       L_GetIncomingText6
;utils.c,30 :: 		line++;
	INCF       GetIncomingText_line_L0+0, 1
	BTFSC      STATUS+0, 2
	INCF       GetIncomingText_line_L0+1, 1
;utils.c,31 :: 		column = 1;
	MOVLW      1
	MOVWF      GetIncomingText_column_L0+0
	MOVLW      0
	MOVWF      GetIncomingText_column_L0+1
;utils.c,32 :: 		}
L_GetIncomingText6:
;utils.c,33 :: 		if(line > 2){
	MOVLW      128
	MOVWF      R0+0
	MOVLW      128
	XORWF      GetIncomingText_line_L0+1, 0
	SUBWF      R0+0, 0
	BTFSS      STATUS+0, 2
	GOTO       L__GetIncomingText71
	MOVF       GetIncomingText_line_L0+0, 0
	SUBLW      2
L__GetIncomingText71:
	BTFSC      STATUS+0, 0
	GOTO       L_GetIncomingText7
;utils.c,34 :: 		line = 1;
	MOVLW      1
	MOVWF      GetIncomingText_line_L0+0
	MOVLW      0
	MOVWF      GetIncomingText_line_L0+1
;utils.c,35 :: 		Delay_ms(1000);
	MOVLW      26
	MOVWF      R11+0
	MOVLW      94
	MOVWF      R12+0
	MOVLW      110
	MOVWF      R13+0
L_GetIncomingText8:
	DECFSZ     R13+0, 1
	GOTO       L_GetIncomingText8
	DECFSZ     R12+0, 1
	GOTO       L_GetIncomingText8
	DECFSZ     R11+0, 1
	GOTO       L_GetIncomingText8
	NOP
;utils.c,36 :: 		Lcd_Cmd(_LCD_CLEAR);
	MOVLW      1
	MOVWF      FARG_Lcd_Cmd_out_char+0
	CALL       _Lcd_Cmd+0
;utils.c,37 :: 		}
L_GetIncomingText7:
;utils.c,38 :: 		}
	GOTO       L_GetIncomingText2
L_GetIncomingText3:
;utils.c,39 :: 		}
L_GetIncomingText1:
;utils.c,40 :: 		}
L_end_GetIncomingText:
	RETURN
; end of _GetIncomingText

_ReadKeyboard:

;utils.c,42 :: 		char ReadKeyboard(){
;utils.c,43 :: 		if(RB4_bit == 1){
	BTFSS      RB4_bit+0, BitPos(RB4_bit+0)
	GOTO       L_ReadKeyboard9
;utils.c,44 :: 		if(column == 0) return '1';
	MOVLW      0
	XORWF      _column+1, 0
	BTFSS      STATUS+0, 2
	GOTO       L__ReadKeyboard73
	MOVLW      0
	XORWF      _column+0, 0
L__ReadKeyboard73:
	BTFSS      STATUS+0, 2
	GOTO       L_ReadKeyboard10
	MOVLW      49
	MOVWF      R0+0
	GOTO       L_end_ReadKeyboard
L_ReadKeyboard10:
;utils.c,45 :: 		else if(column == 1) return '2';
	MOVLW      0
	XORWF      _column+1, 0
	BTFSS      STATUS+0, 2
	GOTO       L__ReadKeyboard74
	MOVLW      1
	XORWF      _column+0, 0
L__ReadKeyboard74:
	BTFSS      STATUS+0, 2
	GOTO       L_ReadKeyboard12
	MOVLW      50
	MOVWF      R0+0
	GOTO       L_end_ReadKeyboard
L_ReadKeyboard12:
;utils.c,46 :: 		else if(column == 2) return '3';
	MOVLW      0
	XORWF      _column+1, 0
	BTFSS      STATUS+0, 2
	GOTO       L__ReadKeyboard75
	MOVLW      2
	XORWF      _column+0, 0
L__ReadKeyboard75:
	BTFSS      STATUS+0, 2
	GOTO       L_ReadKeyboard14
	MOVLW      51
	MOVWF      R0+0
	GOTO       L_end_ReadKeyboard
L_ReadKeyboard14:
;utils.c,47 :: 		else if(column == 3) return 'A';
	MOVLW      0
	XORWF      _column+1, 0
	BTFSS      STATUS+0, 2
	GOTO       L__ReadKeyboard76
	MOVLW      3
	XORWF      _column+0, 0
L__ReadKeyboard76:
	BTFSS      STATUS+0, 2
	GOTO       L_ReadKeyboard16
	MOVLW      65
	MOVWF      R0+0
	GOTO       L_end_ReadKeyboard
L_ReadKeyboard16:
;utils.c,48 :: 		}
	GOTO       L_ReadKeyboard17
L_ReadKeyboard9:
;utils.c,49 :: 		else if(RB5_bit == 1){
	BTFSS      RB5_bit+0, BitPos(RB5_bit+0)
	GOTO       L_ReadKeyboard18
;utils.c,50 :: 		if(column == 0) return '4';
	MOVLW      0
	XORWF      _column+1, 0
	BTFSS      STATUS+0, 2
	GOTO       L__ReadKeyboard77
	MOVLW      0
	XORWF      _column+0, 0
L__ReadKeyboard77:
	BTFSS      STATUS+0, 2
	GOTO       L_ReadKeyboard19
	MOVLW      52
	MOVWF      R0+0
	GOTO       L_end_ReadKeyboard
L_ReadKeyboard19:
;utils.c,51 :: 		else if(column == 1) return '5';
	MOVLW      0
	XORWF      _column+1, 0
	BTFSS      STATUS+0, 2
	GOTO       L__ReadKeyboard78
	MOVLW      1
	XORWF      _column+0, 0
L__ReadKeyboard78:
	BTFSS      STATUS+0, 2
	GOTO       L_ReadKeyboard21
	MOVLW      53
	MOVWF      R0+0
	GOTO       L_end_ReadKeyboard
L_ReadKeyboard21:
;utils.c,52 :: 		else if(column == 2) return '6';
	MOVLW      0
	XORWF      _column+1, 0
	BTFSS      STATUS+0, 2
	GOTO       L__ReadKeyboard79
	MOVLW      2
	XORWF      _column+0, 0
L__ReadKeyboard79:
	BTFSS      STATUS+0, 2
	GOTO       L_ReadKeyboard23
	MOVLW      54
	MOVWF      R0+0
	GOTO       L_end_ReadKeyboard
L_ReadKeyboard23:
;utils.c,53 :: 		else if(column == 3) return 'B';
	MOVLW      0
	XORWF      _column+1, 0
	BTFSS      STATUS+0, 2
	GOTO       L__ReadKeyboard80
	MOVLW      3
	XORWF      _column+0, 0
L__ReadKeyboard80:
	BTFSS      STATUS+0, 2
	GOTO       L_ReadKeyboard25
	MOVLW      66
	MOVWF      R0+0
	GOTO       L_end_ReadKeyboard
L_ReadKeyboard25:
;utils.c,54 :: 		}
	GOTO       L_ReadKeyboard26
L_ReadKeyboard18:
;utils.c,55 :: 		else if(RB6_bit == 1){
	BTFSS      RB6_bit+0, BitPos(RB6_bit+0)
	GOTO       L_ReadKeyboard27
;utils.c,56 :: 		if(column == 0) return '7';
	MOVLW      0
	XORWF      _column+1, 0
	BTFSS      STATUS+0, 2
	GOTO       L__ReadKeyboard81
	MOVLW      0
	XORWF      _column+0, 0
L__ReadKeyboard81:
	BTFSS      STATUS+0, 2
	GOTO       L_ReadKeyboard28
	MOVLW      55
	MOVWF      R0+0
	GOTO       L_end_ReadKeyboard
L_ReadKeyboard28:
;utils.c,57 :: 		else if(column == 1) return '8';
	MOVLW      0
	XORWF      _column+1, 0
	BTFSS      STATUS+0, 2
	GOTO       L__ReadKeyboard82
	MOVLW      1
	XORWF      _column+0, 0
L__ReadKeyboard82:
	BTFSS      STATUS+0, 2
	GOTO       L_ReadKeyboard30
	MOVLW      56
	MOVWF      R0+0
	GOTO       L_end_ReadKeyboard
L_ReadKeyboard30:
;utils.c,58 :: 		else if(column == 2) return '9';
	MOVLW      0
	XORWF      _column+1, 0
	BTFSS      STATUS+0, 2
	GOTO       L__ReadKeyboard83
	MOVLW      2
	XORWF      _column+0, 0
L__ReadKeyboard83:
	BTFSS      STATUS+0, 2
	GOTO       L_ReadKeyboard32
	MOVLW      57
	MOVWF      R0+0
	GOTO       L_end_ReadKeyboard
L_ReadKeyboard32:
;utils.c,59 :: 		else if(column == 3) return 'C';
	MOVLW      0
	XORWF      _column+1, 0
	BTFSS      STATUS+0, 2
	GOTO       L__ReadKeyboard84
	MOVLW      3
	XORWF      _column+0, 0
L__ReadKeyboard84:
	BTFSS      STATUS+0, 2
	GOTO       L_ReadKeyboard34
	MOVLW      67
	MOVWF      R0+0
	GOTO       L_end_ReadKeyboard
L_ReadKeyboard34:
;utils.c,60 :: 		}
	GOTO       L_ReadKeyboard35
L_ReadKeyboard27:
;utils.c,61 :: 		else if(RB7_bit == 1){
	BTFSS      RB7_bit+0, BitPos(RB7_bit+0)
	GOTO       L_ReadKeyboard36
;utils.c,62 :: 		if(column == 0) return '*';
	MOVLW      0
	XORWF      _column+1, 0
	BTFSS      STATUS+0, 2
	GOTO       L__ReadKeyboard85
	MOVLW      0
	XORWF      _column+0, 0
L__ReadKeyboard85:
	BTFSS      STATUS+0, 2
	GOTO       L_ReadKeyboard37
	MOVLW      42
	MOVWF      R0+0
	GOTO       L_end_ReadKeyboard
L_ReadKeyboard37:
;utils.c,63 :: 		else if(column == 1) return '0';
	MOVLW      0
	XORWF      _column+1, 0
	BTFSS      STATUS+0, 2
	GOTO       L__ReadKeyboard86
	MOVLW      1
	XORWF      _column+0, 0
L__ReadKeyboard86:
	BTFSS      STATUS+0, 2
	GOTO       L_ReadKeyboard39
	MOVLW      48
	MOVWF      R0+0
	GOTO       L_end_ReadKeyboard
L_ReadKeyboard39:
;utils.c,64 :: 		else if(column == 2) return '#';
	MOVLW      0
	XORWF      _column+1, 0
	BTFSS      STATUS+0, 2
	GOTO       L__ReadKeyboard87
	MOVLW      2
	XORWF      _column+0, 0
L__ReadKeyboard87:
	BTFSS      STATUS+0, 2
	GOTO       L_ReadKeyboard41
	MOVLW      35
	MOVWF      R0+0
	GOTO       L_end_ReadKeyboard
L_ReadKeyboard41:
;utils.c,65 :: 		else if(column == 3) return 'D';
	MOVLW      0
	XORWF      _column+1, 0
	BTFSS      STATUS+0, 2
	GOTO       L__ReadKeyboard88
	MOVLW      3
	XORWF      _column+0, 0
L__ReadKeyboard88:
	BTFSS      STATUS+0, 2
	GOTO       L_ReadKeyboard43
	MOVLW      68
	MOVWF      R0+0
	GOTO       L_end_ReadKeyboard
L_ReadKeyboard43:
;utils.c,66 :: 		}
L_ReadKeyboard36:
L_ReadKeyboard35:
L_ReadKeyboard26:
L_ReadKeyboard17:
;utils.c,67 :: 		}
L_end_ReadKeyboard:
	RETURN
; end of _ReadKeyboard

_interrupt:
	MOVWF      R15+0
	SWAPF      STATUS+0, 0
	CLRF       STATUS+0
	MOVWF      ___saveSTATUS+0
	MOVF       PCLATH+0, 0
	MOVWF      ___savePCLATH+0
	CLRF       PCLATH+0

;utils.c,69 :: 		void interrupt(){
;utils.c,70 :: 		if(INTF_bit){
	BTFSS      INTF_bit+0, BitPos(INTF_bit+0)
	GOTO       L_interrupt44
;utils.c,71 :: 		column++;
	INCF       _column+0, 1
	BTFSC      STATUS+0, 2
	INCF       _column+1, 1
;utils.c,72 :: 		INTF_bit = 0x00;
	BCF        INTF_bit+0, BitPos(INTF_bit+0)
;utils.c,73 :: 		}
L_interrupt44:
;utils.c,74 :: 		if(column > 3) column == 0;
	MOVF       _column+1, 0
	SUBLW      0
	BTFSS      STATUS+0, 2
	GOTO       L__interrupt91
	MOVF       _column+0, 0
	SUBLW      3
L__interrupt91:
	BTFSC      STATUS+0, 0
	GOTO       L_interrupt45
L_interrupt45:
;utils.c,75 :: 		switch(column){
	GOTO       L_interrupt46
;utils.c,76 :: 		case 0:
L_interrupt48:
;utils.c,77 :: 		RC0_bit = 0x01;          // Aciona o bit RC0
	BSF        RC0_bit+0, BitPos(RC0_bit+0)
;utils.c,78 :: 		RB1_bit = 0x00;
	BCF        RB1_bit+0, BitPos(RB1_bit+0)
;utils.c,79 :: 		RB2_bit = 0x00;
	BCF        RB2_bit+0, BitPos(RB2_bit+0)
;utils.c,80 :: 		RB3_bit = 0x00;
	BCF        RB3_bit+0, BitPos(RB3_bit+0)
;utils.c,81 :: 		break;
	GOTO       L_interrupt47
;utils.c,82 :: 		case 1:
L_interrupt49:
;utils.c,83 :: 		RC0_bit = 0x00;
	BCF        RC0_bit+0, BitPos(RC0_bit+0)
;utils.c,84 :: 		RB1_bit = 0x01;          // Aciona o bit RB1
	BSF        RB1_bit+0, BitPos(RB1_bit+0)
;utils.c,85 :: 		RB2_bit = 0x00;
	BCF        RB2_bit+0, BitPos(RB2_bit+0)
;utils.c,86 :: 		RB3_bit = 0x00;
	BCF        RB3_bit+0, BitPos(RB3_bit+0)
;utils.c,87 :: 		break;
	GOTO       L_interrupt47
;utils.c,88 :: 		case 2:
L_interrupt50:
;utils.c,89 :: 		RC0_bit = 0x00;
	BCF        RC0_bit+0, BitPos(RC0_bit+0)
;utils.c,90 :: 		RB1_bit = 0x00;
	BCF        RB1_bit+0, BitPos(RB1_bit+0)
;utils.c,91 :: 		RB2_bit = 0x01;          // Aciona o bit RB2
	BSF        RB2_bit+0, BitPos(RB2_bit+0)
;utils.c,92 :: 		RB3_bit = 0x00;
	BCF        RB3_bit+0, BitPos(RB3_bit+0)
;utils.c,93 :: 		break;
	GOTO       L_interrupt47
;utils.c,94 :: 		case 3:
L_interrupt51:
;utils.c,95 :: 		RC0_bit = 0x00;
	BCF        RC0_bit+0, BitPos(RC0_bit+0)
;utils.c,96 :: 		RB1_bit = 0x00;
	BCF        RB1_bit+0, BitPos(RB1_bit+0)
;utils.c,97 :: 		RB2_bit = 0x00;
	BCF        RB2_bit+0, BitPos(RB2_bit+0)
;utils.c,98 :: 		RB3_bit = 0x01;          // Aciona o bit RB3
	BSF        RB3_bit+0, BitPos(RB3_bit+0)
;utils.c,99 :: 		break;
	GOTO       L_interrupt47
;utils.c,100 :: 		}
L_interrupt46:
	MOVLW      0
	XORWF      _column+1, 0
	BTFSS      STATUS+0, 2
	GOTO       L__interrupt92
	MOVLW      0
	XORWF      _column+0, 0
L__interrupt92:
	BTFSC      STATUS+0, 2
	GOTO       L_interrupt48
	MOVLW      0
	XORWF      _column+1, 0
	BTFSS      STATUS+0, 2
	GOTO       L__interrupt93
	MOVLW      1
	XORWF      _column+0, 0
L__interrupt93:
	BTFSC      STATUS+0, 2
	GOTO       L_interrupt49
	MOVLW      0
	XORWF      _column+1, 0
	BTFSS      STATUS+0, 2
	GOTO       L__interrupt94
	MOVLW      2
	XORWF      _column+0, 0
L__interrupt94:
	BTFSC      STATUS+0, 2
	GOTO       L_interrupt50
	MOVLW      0
	XORWF      _column+1, 0
	BTFSS      STATUS+0, 2
	GOTO       L__interrupt95
	MOVLW      3
	XORWF      _column+0, 0
L__interrupt95:
	BTFSC      STATUS+0, 2
	GOTO       L_interrupt51
L_interrupt47:
;utils.c,101 :: 		}
L_end_interrupt:
L__interrupt90:
	MOVF       ___savePCLATH+0, 0
	MOVWF      PCLATH+0
	SWAPF      ___saveSTATUS+0, 0
	MOVWF      STATUS+0
	SWAPF      R15+0, 1
	SWAPF      R15+0, 0
	RETFIE
; end of _interrupt

_AddFeedInfo:

;utils.c,103 :: 		void AddFeedInfo(){
;utils.c,108 :: 		Lcd_Out(1, (16-strlen("Add a new feed:"))/2, "Add a new feed:");
	MOVLW      ?lstr1_utils+0
	MOVWF      FARG_strlen_s+0
	CALL       _strlen+0
	MOVF       R0+0, 0
	SUBLW      16
	MOVWF      R3+0
	MOVF       R0+1, 0
	BTFSS      STATUS+0, 0
	ADDLW      1
	CLRF       R3+1
	SUBWF      R3+1, 1
	MOVF       R3+0, 0
	MOVWF      R0+0
	MOVF       R3+1, 0
	MOVWF      R0+1
	RRF        R0+1, 1
	RRF        R0+0, 1
	BCF        R0+1, 7
	BTFSC      R0+1, 6
	BSF        R0+1, 7
	BTFSS      R0+1, 7
	GOTO       L__AddFeedInfo97
	BTFSS      STATUS+0, 0
	GOTO       L__AddFeedInfo97
	INCF       R0+0, 1
	BTFSC      STATUS+0, 2
	INCF       R0+1, 1
L__AddFeedInfo97:
	MOVF       R0+0, 0
	MOVWF      FARG_Lcd_Out_column+0
	MOVLW      1
	MOVWF      FARG_Lcd_Out_row+0
	MOVLW      ?lstr2_utils+0
	MOVWF      FARG_Lcd_Out_text+0
	CALL       _Lcd_Out+0
;utils.c,109 :: 		Lcd_Out(2,6,"--:--");
	MOVLW      2
	MOVWF      FARG_Lcd_Out_row+0
	MOVLW      6
	MOVWF      FARG_Lcd_Out_column+0
	MOVLW      ?lstr3_utils+0
	MOVWF      FARG_Lcd_Out_text+0
	CALL       _Lcd_Out+0
;utils.c,111 :: 		do {
L_AddFeedInfo52:
;utils.c,112 :: 		strcpy(key, ReadKeyboard());
	CALL       _ReadKeyboard+0
	MOVF       R0+0, 0
	MOVWF      FARG_strcpy_from+0
	MOVF       AddFeedInfo_key_L0+0, 0
	MOVWF      FARG_strcpy_to+0
	CALL       _strcpy+0
;utils.c,113 :: 		switch(key){
	GOTO       L_AddFeedInfo55
;utils.c,114 :: 		case '#': // Delete button
L_AddFeedInfo57:
;utils.c,115 :: 		if((indice == 3) || (indice == 0)) break;
	MOVF       AddFeedInfo_indice_L0+0, 0
	XORLW      3
	BTFSC      STATUS+0, 2
	GOTO       L__AddFeedInfo68
	MOVF       AddFeedInfo_indice_L0+0, 0
	XORLW      0
	BTFSC      STATUS+0, 2
	GOTO       L__AddFeedInfo68
	GOTO       L_AddFeedInfo60
L__AddFeedInfo68:
	GOTO       L_AddFeedInfo56
L_AddFeedInfo60:
;utils.c,116 :: 		indice--;
	DECF       AddFeedInfo_indice_L0+0, 1
;utils.c,117 :: 		LCD_Out(2,6+indice, "-");
	MOVLW      2
	MOVWF      FARG_Lcd_Out_row+0
	MOVF       AddFeedInfo_indice_L0+0, 0
	ADDLW      6
	MOVWF      FARG_Lcd_Out_column+0
	MOVLW      ?lstr4_utils+0
	MOVWF      FARG_Lcd_Out_text+0
	CALL       _Lcd_Out+0
;utils.c,118 :: 		break;
	GOTO       L_AddFeedInfo56
;utils.c,119 :: 		case '*':
L_AddFeedInfo61:
;utils.c,120 :: 		break;
	GOTO       L_AddFeedInfo56
;utils.c,121 :: 		case 'A':
L_AddFeedInfo62:
;utils.c,122 :: 		break;
	GOTO       L_AddFeedInfo56
;utils.c,123 :: 		case 'B':
L_AddFeedInfo63:
;utils.c,124 :: 		break;
	GOTO       L_AddFeedInfo56
;utils.c,125 :: 		case 'C':
L_AddFeedInfo64:
;utils.c,126 :: 		break;
	GOTO       L_AddFeedInfo56
;utils.c,127 :: 		case 'D':
L_AddFeedInfo65:
;utils.c,128 :: 		break;
	GOTO       L_AddFeedInfo56
;utils.c,129 :: 		default:
L_AddFeedInfo66:
;utils.c,131 :: 		if(indice == 2) break;
	MOVF       AddFeedInfo_indice_L0+0, 0
	XORLW      2
	BTFSS      STATUS+0, 2
	GOTO       L_AddFeedInfo67
	GOTO       L_AddFeedInfo56
L_AddFeedInfo67:
;utils.c,132 :: 		LCD_Out(2, 6+indice, key);
	MOVLW      2
	MOVWF      FARG_Lcd_Out_row+0
	MOVF       AddFeedInfo_indice_L0+0, 0
	ADDLW      6
	MOVWF      FARG_Lcd_Out_column+0
	MOVF       AddFeedInfo_key_L0+0, 0
	MOVWF      FARG_Lcd_Out_text+0
	CALL       _Lcd_Out+0
;utils.c,133 :: 		hour[indice] = key;
	MOVF       AddFeedInfo_indice_L0+0, 0
	ADDLW      AddFeedInfo_hour_L0+0
	MOVWF      FSR
	MOVF       AddFeedInfo_key_L0+0, 0
	MOVWF      INDF+0
;utils.c,134 :: 		indice++;
	INCF       AddFeedInfo_indice_L0+0, 1
;utils.c,135 :: 		break;
	GOTO       L_AddFeedInfo56
;utils.c,136 :: 		}
L_AddFeedInfo55:
	MOVF       AddFeedInfo_key_L0+0, 0
	XORLW      35
	BTFSC      STATUS+0, 2
	GOTO       L_AddFeedInfo57
	MOVF       AddFeedInfo_key_L0+0, 0
	XORLW      42
	BTFSC      STATUS+0, 2
	GOTO       L_AddFeedInfo61
	MOVF       AddFeedInfo_key_L0+0, 0
	XORLW      65
	BTFSC      STATUS+0, 2
	GOTO       L_AddFeedInfo62
	MOVF       AddFeedInfo_key_L0+0, 0
	XORLW      66
	BTFSC      STATUS+0, 2
	GOTO       L_AddFeedInfo63
	MOVF       AddFeedInfo_key_L0+0, 0
	XORLW      67
	BTFSC      STATUS+0, 2
	GOTO       L_AddFeedInfo64
	MOVF       AddFeedInfo_key_L0+0, 0
	XORLW      68
	BTFSC      STATUS+0, 2
	GOTO       L_AddFeedInfo65
	GOTO       L_AddFeedInfo66
L_AddFeedInfo56:
;utils.c,137 :: 		} while(key != 'D');
	MOVF       AddFeedInfo_key_L0+0, 0
	XORLW      68
	BTFSS      STATUS+0, 2
	GOTO       L_AddFeedInfo52
;utils.c,140 :: 		}
L_end_AddFeedInfo:
	RETURN
; end of _AddFeedInfo

utils____?ag:

L_end_utils___?ag:
	RETURN
; end of utils____?ag
